target datalayout = "e-m:e-p270:32:32-p271:32:32-p272:64:64-i64:64-i128:128-f80:128-n8:16:32:64-S128"
target triple = "x86_64-pc-linux-gnu"

%struct.Vec_Int_t_ = type { i32, i32, ptr }

@.str.5 = private unnamed_addr constant [21 x i8] c"grid_%dx%d_e%03d.aig\00", align 1
@.str.6 = private unnamed_addr constant [38 x i8] c"Finished dumping AIG into file \22%s\22.\0A\00", align 1

; Function Attrs: inlinehint nounwind uwtable
define internal i32 @Vec_IntSize(ptr noundef %0) #1 {
  %2 = alloca ptr, align 8
  store ptr %0, ptr %2, align 8, !tbaa !39
  %3 = load ptr, ptr %2, align 8, !tbaa !39
  %4 = getelementptr inbounds nuw %struct.Vec_Int_t_, ptr %3, i32 0, i32 1
  %5 = load i32, ptr %4, align 4, !tbaa !43
  ret i32 %5
}

; Function Attrs: nounwind uwtable
define void @Abc_GraphDeriveGiaDump(ptr noundef %0, ptr noundef %1, i32 noundef %2) #0 {
  %4 = alloca ptr, align 8
  %5 = alloca ptr, align 8
  %6 = alloca i32, align 4
  %7 = alloca [100 x i8], align 16
  %8 = alloca ptr, align 8
  store ptr %0, ptr %4, align 8, !tbaa !47
  store ptr %1, ptr %5, align 8, !tbaa !39
  store i32 %2, ptr %6, align 4, !tbaa !3
  call void @llvm.lifetime.start.p0(i64 100, ptr %7) #12
  call void @llvm.lifetime.start.p0(i64 8, ptr %8) #12
  %9 = load ptr, ptr %4, align 8, !tbaa !47
  %10 = load ptr, ptr %5, align 8, !tbaa !39
  %11 = call ptr @Abc_GraphDeriveGia(ptr noundef %9, ptr noundef %10)
  store ptr %11, ptr %8, align 8, !tbaa !7
  %12 = getelementptr inbounds [100 x i8], ptr %7, i64 0, i64 0
  %13 = load i32, ptr %6, align 4, !tbaa !3
  %14 = load i32, ptr %6, align 4, !tbaa !3
  %15 = load ptr, ptr %5, align 8, !tbaa !39
  %16 = call i32 @Vec_IntSize(ptr noundef %15)
  %17 = sdiv i32 %16, 2
  %18 = call i32 (ptr, ptr, ...) @sprintf(ptr noundef %12, ptr noundef @.str.5, i32 noundef %13, i32 noundef %14, i32 noundef %17) #12
  %19 = load ptr, ptr %8, align 8, !tbaa !7
  %20 = getelementptr inbounds [100 x i8], ptr %7, i64 0, i64 0
  call void @Gia_AigerWrite(ptr noundef %19, ptr noundef %20, i32 noundef 0, i32 noundef 0, i32 noundef 0)
  %21 = load ptr, ptr %8, align 8, !tbaa !7
  call void @Gia_ManStop(ptr noundef %21)
  %22 = getelementptr inbounds [100 x i8], ptr %7, i64 0, i64 0
  %23 = call i32 (ptr, ...) @printf(ptr noundef @.str.6, ptr noundef %22)
  call void @llvm.lifetime.end.p0(i64 8, ptr %8) #12
  call void @llvm.lifetime.end.p0(i64 100, ptr %7) #12
  ret void
}