; Function Attrs: nounwind uwtable
define void @Abc_GraphDeriveGiaDump(ptr noundef %0, ptr noundef %1, i32 noundef %2) local_unnamed_addr #1 {
  %4 = alloca [100 x i8], align 16
  call void @llvm.lifetime.start.p0(i64 100, ptr nonnull %4) #23
  %5 = tail call ptr @Abc_GraphDeriveGia(ptr noundef %0, ptr noundef %1)
  %6 = getelementptr i8, ptr %1, i64 4
  %.val = load i32, ptr %6, align 4, !tbaa !34
  %7 = sdiv i32 %.val, 2
  %8 = call i32 (ptr, ptr, ...) @sprintf(ptr noundef nonnull dereferenceable(1) %4, ptr noundef nonnull dereferenceable(1) @.str.5, i32 noundef %2, i32 noundef %2, i32 noundef %7) #23
  call void @Gia_AigerWrite(ptr noundef %5, ptr noundef nonnull %4, i32 noundef 0, i32 noundef 0, i32 noundef 0) #23
  call void @Gia_ManStop(ptr noundef %5) #23
  %9 = call i32 (ptr, ...) @printf(ptr noundef nonnull dereferenceable(1) @.str.6, ptr noundef nonnull %4)
  call void @llvm.lifetime.end.p0(i64 100, ptr nonnull %4) #23
  ret void
}